target datalayout = "e-m:e-p270:32:32-p271:32:32-p272:64:64-i64:64-i128:128-f80:128-n8:16:32:64-S128"
target triple = "x86_64-unknown-linux-gnu"

%class.b3PgsJacobiSolver = type { ptr, %class.b3AlignedObjectArray, %class.b3AlignedObjectArray.0, %class.b3AlignedObjectArray.0, %class.b3AlignedObjectArray.0, %class.b3AlignedObjectArray.0, %class.b3AlignedObjectArray.4, %class.b3AlignedObjectArray.4, %class.b3AlignedObjectArray.4, %class.b3AlignedObjectArray.8, %class.b3AlignedObjectArray.4, %class.b3AlignedObjectArray.4, %class.b3AlignedObjectArray.12, %class.b3AlignedObjectArray.12, i8, i32, i32, i64 }
%class.b3AlignedObjectArray = type <{ %class.b3AlignedAllocator, [3 x i8], i32, i32, [4 x i8], ptr, i8, [7 x i8] }>
%class.b3AlignedAllocator = type { i8 }
%class.b3AlignedObjectArray.0 = type <{ %class.b3AlignedAllocator.1, [3 x i8], i32, i32, [4 x i8], ptr, i8, [7 x i8] }>
%class.b3AlignedAllocator.1 = type { i8 }
%class.b3AlignedObjectArray.8 = type <{ %class.b3AlignedAllocator.9, [3 x i8], i32, i32, [4 x i8], ptr, i8, [7 x i8] }>
%class.b3AlignedAllocator.9 = type { i8 }
%class.b3AlignedObjectArray.4 = type <{ %class.b3AlignedAllocator.5, [3 x i8], i32, i32, [4 x i8], ptr, i8, [7 x i8] }>
%class.b3AlignedAllocator.5 = type { i8 }
%class.b3AlignedObjectArray.12 = type <{ %class.b3AlignedAllocator.13, [3 x i8], i32, i32, [4 x i8], ptr, i8, [7 x i8] }>
%class.b3AlignedAllocator.13 = type { i8 }

; Function Attrs: mustprogress nounwind uwtable
define dso_local noundef i64 @_ZN17b3PgsJacobiSolver7b3Rand2Ev(ptr noundef nonnull align 8 dereferenceable(448) %this) #1 align 2 {
entry:
  %this.addr = alloca ptr, align 8
  store ptr %this, ptr %this.addr, align 8
  %this1 = load ptr, ptr %this.addr, align 8
  %m_btSeed2 = getelementptr inbounds %class.b3PgsJacobiSolver, ptr %this1, i32 0, i32 17
  %0 = load i64, ptr %m_btSeed2, align 8
  %mul = mul i64 1664525, %0
  %add = add i64 %mul, 1013904223
  %and = and i64 %add, 4294967295
  %m_btSeed22 = getelementptr inbounds %class.b3PgsJacobiSolver, ptr %this1, i32 0, i32 17
  store i64 %and, ptr %m_btSeed22, align 8
  %m_btSeed23 = getelementptr inbounds %class.b3PgsJacobiSolver, ptr %this1, i32 0, i32 17
  %1 = load i64, ptr %m_btSeed23, align 8
  ret i64 %1
}

; Function Attrs: mustprogress nounwind uwtable
define dso_local noundef i32 @_ZN17b3PgsJacobiSolver10b3RandInt2Ei(ptr noundef nonnull align 8 dereferenceable(448) %this, i32 noundef %n) #1 align 2 {
entry:
  %this.addr = alloca ptr, align 8
  %n.addr = alloca i32, align 4
  %un = alloca i64, align 8
  %r = alloca i64, align 8
  store ptr %this, ptr %this.addr, align 8
  store i32 %n, ptr %n.addr, align 4
  %this1 = load ptr, ptr %this.addr, align 8
  %0 = load i32, ptr %n.addr, align 4
  %conv = sext i32 %0 to i64
  store i64 %conv, ptr %un, align 8
  %call = call noundef i64 @_ZN17b3PgsJacobiSolver7b3Rand2Ev(ptr noundef nonnull align 8 dereferenceable(448) %this1)
  store i64 %call, ptr %r, align 8
  %1 = load i64, ptr %un, align 8
  %cmp = icmp ule i64 %1, 65536
  br i1 %cmp, label %if.then, label %if.end21

if.then:                                          ; preds = %entry
  %2 = load i64, ptr %r, align 8
  %shr = lshr i64 %2, 16
  %3 = load i64, ptr %r, align 8
  %xor = xor i64 %3, %shr
  store i64 %xor, ptr %r, align 8
  %4 = load i64, ptr %un, align 8
  %cmp2 = icmp ule i64 %4, 256
  br i1 %cmp2, label %if.then3, label %if.end20

if.then3:                                         ; preds = %if.then
  %5 = load i64, ptr %r, align 8
  %shr4 = lshr i64 %5, 8
  %6 = load i64, ptr %r, align 8
  %xor5 = xor i64 %6, %shr4
  store i64 %xor5, ptr %r, align 8
  %7 = load i64, ptr %un, align 8
  %cmp6 = icmp ule i64 %7, 16
  br i1 %cmp6, label %if.then7, label %if.end19

if.then7:                                         ; preds = %if.then3
  %8 = load i64, ptr %r, align 8
  %shr8 = lshr i64 %8, 4
  %9 = load i64, ptr %r, align 8
  %xor9 = xor i64 %9, %shr8
  store i64 %xor9, ptr %r, align 8
  %10 = load i64, ptr %un, align 8
  %cmp10 = icmp ule i64 %10, 4
  br i1 %cmp10, label %if.then11, label %if.end18

if.then11:                                        ; preds = %if.then7
  %11 = load i64, ptr %r, align 8
  %shr12 = lshr i64 %11, 2
  %12 = load i64, ptr %r, align 8
  %xor13 = xor i64 %12, %shr12
  store i64 %xor13, ptr %r, align 8
  %13 = load i64, ptr %un, align 8
  %cmp14 = icmp ule i64 %13, 2
  br i1 %cmp14, label %if.then15, label %if.end

if.then15:                                        ; preds = %if.then11
  %14 = load i64, ptr %r, align 8
  %shr16 = lshr i64 %14, 1
  %15 = load i64, ptr %r, align 8
  %xor17 = xor i64 %15, %shr16
  store i64 %xor17, ptr %r, align 8
  br label %if.end

if.end:                                           ; preds = %if.then15, %if.then11
  br label %if.end18

if.end18:                                         ; preds = %if.end, %if.then7
  br label %if.end19

if.end19:                                         ; preds = %if.end18, %if.then3
  br label %if.end20

if.end20:                                         ; preds = %if.end19, %if.then
  br label %if.end21

if.end21:                                         ; preds = %if.end20, %entry
  %16 = load i64, ptr %r, align 8
  %17 = load i64, ptr %un, align 8
  %rem = urem i64 %16, %17
  %conv22 = trunc i64 %rem to i32
  ret i32 %conv22
}