; Function Attrs: mustprogress nofree norecurse nosync nounwind willreturn memory(argmem: readwrite) uwtable
define dso_local noundef i32 @_ZN17b3PgsJacobiSolver10b3RandInt2Ei(ptr nocapture noundef nonnull align 8 dereferenceable(448) %this, i32 noundef %n) local_unnamed_addr #6 align 2 {
entry:
  %m_btSeed2.i = getelementptr inbounds i8, ptr %this, i64 440
  %0 = load i64, ptr %m_btSeed2.i, align 8
  %mul.i = mul i64 %0, 1664525
  %add.i = add i64 %mul.i, 1013904223
  %and.i = and i64 %add.i, 4294967295
  store i64 %and.i, ptr %m_btSeed2.i, align 8
  %cmp = icmp ult i32 %n, 65537
  br i1 %cmp, label %if.then, label %if.end21

if.then:                                          ; preds = %entry
  %shr = lshr i64 %and.i, 16
  %xor = xor i64 %shr, %and.i
  %cmp2 = icmp ult i32 %n, 257
  br i1 %cmp2, label %if.then3, label %if.end21

if.then3:                                         ; preds = %if.then
  %shr4 = lshr i64 %xor, 8
  %xor5 = xor i64 %shr4, %xor
  %cmp6 = icmp ult i32 %n, 17
  br i1 %cmp6, label %if.then7, label %if.end21

if.then7:                                         ; preds = %if.then3
  %shr8 = lshr i64 %xor5, 4
  %xor9 = xor i64 %shr8, %xor5
  %cmp10 = icmp ult i32 %n, 5
  br i1 %cmp10, label %if.then11, label %if.end21

if.then11:                                        ; preds = %if.then7
  %shr12 = lshr i64 %xor9, 2
  %xor13 = xor i64 %shr12, %xor9
  %cmp14 = icmp ult i32 %n, 3
  br i1 %cmp14, label %if.then15, label %if.end21

if.then15:                                        ; preds = %if.then11
  %shr16 = lshr i64 %xor13, 1
  %xor17 = xor i64 %shr16, %xor13
  br label %if.end21

if.end21:                                         ; preds = %if.then, %if.then7, %if.then15, %if.then11, %if.then3, %entry
  %r.0 = phi i64 [ %xor17, %if.then15 ], [ %xor13, %if.then11 ], [ %xor9, %if.then7 ], [ %xor5, %if.then3 ], [ %xor, %if.then ], [ %and.i, %entry ]
  %conv = sext i32 %n to i64
  %rem = urem i64 %r.0, %conv
  %conv22 = trunc i64 %rem to i32
  ret i32 %conv22
}